target datalayout = "e-m:e-p270:32:32-p271:32:32-p272:64:64-i64:64-i128:128-f80:128-n8:16:32:64-S128"
target triple = "x86_64-pc-linux-gnu"

%"class.pxrInternal_v0_24__pxrReserved__::Vt_ArrayBase" = type { %"struct.pxrInternal_v0_24__pxrReserved__::Vt_ShapeData", ptr }
%"struct.pxrInternal_v0_24__pxrReserved__::Vt_ShapeData" = type { i64, [3 x i32] }
%"class.pxrInternal_v0_24__pxrReserved__::VtArray" = type { %"class.pxrInternal_v0_24__pxrReserved__::Vt_ArrayBase", ptr }
%class.anon.485 = type { ptr }
%"struct.__gnu_cxx::__ops::_Iter_equal_to_iter" = type { i8 }

; Function Attrs: mustprogress nounwind uwtable
define linkonce_odr noundef zeroext i1 @_ZNK9__gnu_cxx5__ops19_Iter_equal_to_iterclIPiS3_EEbT_T0_(ptr noundef nonnull align 1 dereferenceable(1) %0, ptr noundef %1, ptr noundef %2) #1 comdat align 2 {
  %4 = alloca ptr, align 8
  %5 = alloca ptr, align 8
  %6 = alloca ptr, align 8
  store ptr %0, ptr %4, align 8
  store ptr %1, ptr %5, align 8
  store ptr %2, ptr %6, align 8
  %7 = load ptr, ptr %5, align 8
  %8 = load i32, ptr %7, align 4
  %9 = load ptr, ptr %6, align 8
  %10 = load i32, ptr %9, align 4
  %11 = icmp eq i32 %8, %10
  ret i1 %11
}

; Function Attrs: mustprogress uwtable
define linkonce_odr noundef ptr @_ZSt15__adjacent_findIPiN9__gnu_cxx5__ops19_Iter_equal_to_iterEET_S4_S4_T0_(ptr noundef %0, ptr noundef %1) #0 comdat {
  %3 = alloca ptr, align 8
  %4 = alloca %"struct.__gnu_cxx::__ops::_Iter_equal_to_iter", align 1
  %5 = alloca ptr, align 8
  %6 = alloca ptr, align 8
  %7 = alloca ptr, align 8
  store ptr %0, ptr %5, align 8
  store ptr %1, ptr %6, align 8
  %8 = load ptr, ptr %5, align 8
  %9 = load ptr, ptr %6, align 8
  %10 = icmp eq ptr %8, %9
  br i1 %10, label %11, label %13

11:                                               ; preds = %2
  %12 = load ptr, ptr %6, align 8
  store ptr %12, ptr %3, align 8
  br label %30

13:                                               ; preds = %2
  %14 = load ptr, ptr %5, align 8
  store ptr %14, ptr %7, align 8
  br label %15

15:                                               ; preds = %26, %13
  %16 = load ptr, ptr %7, align 8
  %17 = getelementptr inbounds i32, ptr %16, i32 1
  store ptr %17, ptr %7, align 8
  %18 = load ptr, ptr %6, align 8
  %19 = icmp ne ptr %17, %18
  br i1 %19, label %20, label %28

20:                                               ; preds = %15
  %21 = load ptr, ptr %5, align 8
  %22 = load ptr, ptr %7, align 8
  %23 = call noundef zeroext i1 @_ZNK9__gnu_cxx5__ops19_Iter_equal_to_iterclIPiS3_EEbT_T0_(ptr noundef nonnull align 1 dereferenceable(1) %4, ptr noundef %21, ptr noundef %22)
  br i1 %23, label %24, label %26

24:                                               ; preds = %20
  %25 = load ptr, ptr %5, align 8
  store ptr %25, ptr %3, align 8
  br label %30

26:                                               ; preds = %20
  %27 = load ptr, ptr %7, align 8
  store ptr %27, ptr %5, align 8
  br label %15, !llvm.loop !43

28:                                               ; preds = %15
  %29 = load ptr, ptr %6, align 8
  store ptr %29, ptr %3, align 8
  br label %30

30:                                               ; preds = %28, %24, %11
  %31 = load ptr, ptr %3, align 8
  ret ptr %31
}

; Function Attrs: mustprogress uwtable
define linkonce_odr noundef ptr @_ZSt8__uniqueIPiN9__gnu_cxx5__ops19_Iter_equal_to_iterEET_S4_S4_T0_(ptr noundef %0, ptr noundef %1) #0 comdat {
  %3 = alloca ptr, align 8
  %4 = alloca %"struct.__gnu_cxx::__ops::_Iter_equal_to_iter", align 1
  %5 = alloca ptr, align 8
  %6 = alloca ptr, align 8
  %7 = alloca ptr, align 8
  store ptr %0, ptr %5, align 8
  store ptr %1, ptr %6, align 8
  %8 = load ptr, ptr %5, align 8
  %9 = load ptr, ptr %6, align 8
  %10 = call noundef ptr @_ZSt15__adjacent_findIPiN9__gnu_cxx5__ops19_Iter_equal_to_iterEET_S4_S4_T0_(ptr noundef %8, ptr noundef %9)
  store ptr %10, ptr %5, align 8
  %11 = load ptr, ptr %5, align 8
  %12 = load ptr, ptr %6, align 8
  %13 = icmp eq ptr %11, %12
  br i1 %13, label %14, label %16

14:                                               ; preds = %2
  %15 = load ptr, ptr %6, align 8
  store ptr %15, ptr %3, align 8
  br label %38

16:                                               ; preds = %2
  %17 = load ptr, ptr %5, align 8
  store ptr %17, ptr %7, align 8
  %18 = load ptr, ptr %5, align 8
  %19 = getelementptr inbounds i32, ptr %18, i32 1
  store ptr %19, ptr %5, align 8
  br label %20

20:                                               ; preds = %34, %16
  %21 = load ptr, ptr %5, align 8
  %22 = getelementptr inbounds i32, ptr %21, i32 1
  store ptr %22, ptr %5, align 8
  %23 = load ptr, ptr %6, align 8
  %24 = icmp ne ptr %22, %23
  br i1 %24, label %25, label %35

25:                                               ; preds = %20
  %26 = load ptr, ptr %7, align 8
  %27 = load ptr, ptr %5, align 8
  %28 = call noundef zeroext i1 @_ZNK9__gnu_cxx5__ops19_Iter_equal_to_iterclIPiS3_EEbT_T0_(ptr noundef nonnull align 1 dereferenceable(1) %4, ptr noundef %26, ptr noundef %27)
  br i1 %28, label %34, label %29

29:                                               ; preds = %25
  %30 = load ptr, ptr %5, align 8
  %31 = load i32, ptr %30, align 4
  %32 = load ptr, ptr %7, align 8
  %33 = getelementptr inbounds i32, ptr %32, i32 1
  store ptr %33, ptr %7, align 8
  store i32 %31, ptr %33, align 4
  br label %34

34:                                               ; preds = %29, %25
  br label %20, !llvm.loop !42

35:                                               ; preds = %20
  %36 = load ptr, ptr %7, align 8
  %37 = getelementptr inbounds i32, ptr %36, i32 1
  store ptr %37, ptr %7, align 8
  store ptr %37, ptr %3, align 8
  br label %38

38:                                               ; preds = %35, %14
  %39 = load ptr, ptr %3, align 8
  ret ptr %39
}

; Function Attrs: mustprogress nounwind uwtable
define linkonce_odr void @_ZN9__gnu_cxx5__ops20__iter_equal_to_iterEv() #1 comdat {
  ret void
}

; Function Attrs: mustprogress nounwind uwtable
define linkonce_odr void @_ZN9__gnu_cxx5__ops16__iter_less_iterEv() #1 comdat {
  ret void
}

; Function Attrs: mustprogress uwtable
define internal void @"_ZZN32pxrInternal_v0_24__pxrReserved__L6_UnionERKNS_7VtArrayIiEES3_ENK3$_0clERKi"(ptr noundef nonnull align 8 dereferenceable(8) %0, ptr noundef nonnull align 4 dereferenceable(4) %1) #0 align 2 {
  %3 = alloca ptr, align 8
  %4 = alloca ptr, align 8
  store ptr %0, ptr %3, align 8
  store ptr %1, ptr %4, align 8
  %5 = load ptr, ptr %3, align 8
  %6 = getelementptr inbounds nuw %class.anon.485, ptr %5, i32 0, i32 0
  %7 = load ptr, ptr %6, align 8
  %8 = load ptr, ptr %4, align 8
  call void @_ZN32pxrInternal_v0_24__pxrReserved__7VtArrayIiE9push_backERKi(ptr noundef nonnull align 8 dereferenceable(40) %7, ptr noundef nonnull align 4 dereferenceable(4) %8)
  ret void
}

; Function Attrs: mustprogress uwtable
define linkonce_odr noundef ptr @_ZSt6uniqueIPiET_S1_S1_(ptr noundef %0, ptr noundef %1) #0 comdat {
  %3 = alloca ptr, align 8
  %4 = alloca ptr, align 8
  store ptr %0, ptr %3, align 8
  store ptr %1, ptr %4, align 8
  %5 = load ptr, ptr %3, align 8
  %6 = load ptr, ptr %4, align 8
  call void @_ZN9__gnu_cxx5__ops20__iter_equal_to_iterEv()
  %7 = call noundef ptr @_ZSt8__uniqueIPiN9__gnu_cxx5__ops19_Iter_equal_to_iterEET_S4_S4_T0_(ptr noundef %5, ptr noundef %6)
  ret ptr %7
}

; Function Attrs: mustprogress uwtable
define linkonce_odr void @_ZSt4sortIPiEvT_S1_(ptr noundef %0, ptr noundef %1) #0 comdat {
  %3 = alloca ptr, align 8
  %4 = alloca ptr, align 8
  store ptr %0, ptr %3, align 8
  store ptr %1, ptr %4, align 8
  %5 = load ptr, ptr %3, align 8
  %6 = load ptr, ptr %4, align 8
  call void @_ZN9__gnu_cxx5__ops16__iter_less_iterEv()
  call void @_ZSt6__sortIPiN9__gnu_cxx5__ops15_Iter_less_iterEEvT_S4_T0_(ptr noundef %5, ptr noundef %6)
  ret void
}

; Function Attrs: mustprogress uwtable
define internal ptr @"_ZSt8for_eachIPKiZN32pxrInternal_v0_24__pxrReserved__L6_UnionERKNS2_7VtArrayIiEES6_E3$_0ET0_T_S9_S8_"(ptr noundef %0, ptr noundef %1, ptr %2) #0 {
  %4 = alloca %class.anon.485, align 8
  %5 = alloca %class.anon.485, align 8
  %6 = alloca ptr, align 8
  %7 = alloca ptr, align 8
  %8 = getelementptr inbounds nuw %class.anon.485, ptr %5, i32 0, i32 0
  store ptr %2, ptr %8, align 8
  store ptr %0, ptr %6, align 8
  store ptr %1, ptr %7, align 8
  br label %9

9:                                                ; preds = %15, %3
  %10 = load ptr, ptr %6, align 8
  %11 = load ptr, ptr %7, align 8
  %12 = icmp ne ptr %10, %11
  br i1 %12, label %13, label %18

13:                                               ; preds = %9
  %14 = load ptr, ptr %6, align 8
  call void @"_ZZN32pxrInternal_v0_24__pxrReserved__L6_UnionERKNS_7VtArrayIiEES3_ENK3$_0clERKi"(ptr noundef nonnull align 8 dereferenceable(8) %5, ptr noundef nonnull align 4 dereferenceable(4) %14)
  br label %15

15:                                               ; preds = %13
  %16 = load ptr, ptr %6, align 8
  %17 = getelementptr inbounds i32, ptr %16, i32 1
  store ptr %17, ptr %6, align 8
  br label %9, !llvm.loop !29

18:                                               ; preds = %9
  call void @llvm.memcpy.p0.p0.i64(ptr align 8 %4, ptr align 8 %5, i64 8, i1 false)
  %19 = getelementptr inbounds nuw %class.anon.485, ptr %4, i32 0, i32 0
  %20 = load ptr, ptr %19, align 8
  ret ptr %20
}

; Function Attrs: mustprogress uwtable
define internal void @_ZN32pxrInternal_v0_24__pxrReserved__L6_UnionERKNS_7VtArrayIiEES3_(ptr dead_on_unwind noalias writable sret(%"class.pxrInternal_v0_24__pxrReserved__::VtArray") align 8 %0, ptr noundef nonnull align 8 dereferenceable(40) %1, ptr noundef nonnull align 8 dereferenceable(40) %2) #0 personality ptr @__gxx_personality_v0 {
  %4 = alloca ptr, align 8
  %5 = alloca ptr, align 8
  %6 = alloca ptr, align 8
  %7 = alloca i1, align 1
  %8 = alloca ptr, align 8
  %9 = alloca i32, align 4
  %10 = alloca %class.anon.485, align 8
  %11 = alloca %class.anon.485, align 8
  store ptr %0, ptr %4, align 8
  store ptr %1, ptr %5, align 8
  store ptr %2, ptr %6, align 8
  %12 = load ptr, ptr %5, align 8
  %13 = call noundef zeroext i1 @_ZNK32pxrInternal_v0_24__pxrReserved__7VtArrayIiE5emptyEv(ptr noundef nonnull align 8 dereferenceable(40) %12)
  br i1 %13, label %14, label %16

14:                                               ; preds = %3
  %15 = load ptr, ptr %6, align 8
  call void @_ZN32pxrInternal_v0_24__pxrReserved__7VtArrayIiEC1ERKS1_(ptr noundef nonnull align 8 dereferenceable(40) %0, ptr noundef nonnull align 8 dereferenceable(40) %15)
  br label %64

16:                                               ; preds = %3
  %17 = load ptr, ptr %6, align 8
  %18 = call noundef zeroext i1 @_ZNK32pxrInternal_v0_24__pxrReserved__7VtArrayIiE5emptyEv(ptr noundef nonnull align 8 dereferenceable(40) %17)
  br i1 %18, label %19, label %21

19:                                               ; preds = %16
  %20 = load ptr, ptr %5, align 8
  call void @_ZN32pxrInternal_v0_24__pxrReserved__7VtArrayIiEC1ERKS1_(ptr noundef nonnull align 8 dereferenceable(40) %0, ptr noundef nonnull align 8 dereferenceable(40) %20)
  br label %64

21:                                               ; preds = %16
  store i1 false, ptr %7, align 1
  %22 = load ptr, ptr %5, align 8
  call void @_ZN32pxrInternal_v0_24__pxrReserved__7VtArrayIiEC1ERKS1_(ptr noundef nonnull align 8 dereferenceable(40) %0, ptr noundef nonnull align 8 dereferenceable(40) %22)
  %23 = invoke noundef i64 @_ZNK32pxrInternal_v0_24__pxrReserved__7VtArrayIiE4sizeEv(ptr noundef nonnull align 8 dereferenceable(40) %0)
          to label %24 unwind label %58

24:                                               ; preds = %21
  %25 = load ptr, ptr %6, align 8
  %26 = invoke noundef i64 @_ZNK32pxrInternal_v0_24__pxrReserved__7VtArrayIiE4sizeEv(ptr noundef nonnull align 8 dereferenceable(40) %25)
          to label %27 unwind label %58

27:                                               ; preds = %24
  %28 = add i64 %23, %26
  invoke void @_ZN32pxrInternal_v0_24__pxrReserved__7VtArrayIiE7reserveEm(ptr noundef nonnull align 8 dereferenceable(40) %0, i64 noundef %28)
          to label %29 unwind label %58

29:                                               ; preds = %27
  %30 = load ptr, ptr %6, align 8
  %31 = invoke noundef ptr @_ZNK32pxrInternal_v0_24__pxrReserved__7VtArrayIiE6cbeginEv(ptr noundef nonnull align 8 dereferenceable(40) %30)
          to label %32 unwind label %58

32:                                               ; preds = %29
  %33 = load ptr, ptr %6, align 8
  %34 = invoke noundef ptr @_ZNK32pxrInternal_v0_24__pxrReserved__7VtArrayIiE4cendEv(ptr noundef nonnull align 8 dereferenceable(40) %33)
          to label %35 unwind label %58

35:                                               ; preds = %32
  %36 = getelementptr inbounds nuw %class.anon.485, ptr %10, i32 0, i32 0
  store ptr %0, ptr %36, align 8
  %37 = getelementptr inbounds nuw %class.anon.485, ptr %10, i32 0, i32 0
  %38 = load ptr, ptr %37, align 8
  %39 = invoke ptr @"_ZSt8for_eachIPKiZN32pxrInternal_v0_24__pxrReserved__L6_UnionERKNS2_7VtArrayIiEES6_E3$_0ET0_T_S9_S8_"(ptr noundef %31, ptr noundef %34, ptr %38)
          to label %40 unwind label %58

40:                                               ; preds = %35
  %41 = getelementptr inbounds nuw %class.anon.485, ptr %11, i32 0, i32 0
  store ptr %39, ptr %41, align 8
  %42 = invoke noundef ptr @_ZN32pxrInternal_v0_24__pxrReserved__7VtArrayIiE5beginEv(ptr noundef nonnull align 8 dereferenceable(40) %0)
          to label %43 unwind label %58

43:                                               ; preds = %40
  %44 = invoke noundef ptr @_ZN32pxrInternal_v0_24__pxrReserved__7VtArrayIiE3endEv(ptr noundef nonnull align 8 dereferenceable(40) %0)
          to label %45 unwind label %58

45:                                               ; preds = %43
  invoke void @_ZSt4sortIPiEvT_S1_(ptr noundef %42, ptr noundef %44)
          to label %46 unwind label %58

46:                                               ; preds = %45
  %47 = invoke noundef ptr @_ZN32pxrInternal_v0_24__pxrReserved__7VtArrayIiE5beginEv(ptr noundef nonnull align 8 dereferenceable(40) %0)
          to label %48 unwind label %58

48:                                               ; preds = %46
  %49 = invoke noundef ptr @_ZN32pxrInternal_v0_24__pxrReserved__7VtArrayIiE3endEv(ptr noundef nonnull align 8 dereferenceable(40) %0)
          to label %50 unwind label %58

50:                                               ; preds = %48
  %51 = invoke noundef ptr @_ZSt6uniqueIPiET_S1_S1_(ptr noundef %47, ptr noundef %49)
          to label %52 unwind label %58

52:                                               ; preds = %50
  %53 = invoke noundef ptr @_ZN32pxrInternal_v0_24__pxrReserved__7VtArrayIiE3endEv(ptr noundef nonnull align 8 dereferenceable(40) %0)
          to label %54 unwind label %58

54:                                               ; preds = %52
  %55 = invoke noundef ptr @_ZN32pxrInternal_v0_24__pxrReserved__7VtArrayIiE5eraseEPKiS3_(ptr noundef nonnull align 8 dereferenceable(40) %0, ptr noundef %51, ptr noundef %53)
          to label %56 unwind label %58

56:                                               ; preds = %54
  store i1 true, ptr %7, align 1
  %57 = load i1, ptr %7, align 1
  br i1 %57, label %63, label %62

58:                                               ; preds = %54, %52, %50, %48, %46, %45, %43, %40, %35, %32, %29, %27, %24, %21
  %59 = landingpad { ptr, i32 }
          cleanup
  %60 = extractvalue { ptr, i32 } %59, 0
  store ptr %60, ptr %8, align 8
  %61 = extractvalue { ptr, i32 } %59, 1
  store i32 %61, ptr %9, align 4
  call void @_ZN32pxrInternal_v0_24__pxrReserved__7VtArrayIiED1Ev(ptr noundef nonnull align 8 dereferenceable(40) %0) #8
  br label %65

62:                                               ; preds = %56
  call void @_ZN32pxrInternal_v0_24__pxrReserved__7VtArrayIiED1Ev(ptr noundef nonnull align 8 dereferenceable(40) %0) #8
  br label %63

63:                                               ; preds = %62, %56
  br label %64

64:                                               ; preds = %63, %19, %14
  ret void

65:                                               ; preds = %58
  %66 = load ptr, ptr %8, align 8
  %67 = load i32, ptr %9, align 4
  %68 = insertvalue { ptr, i32 } poison, ptr %66, 0
  %69 = insertvalue { ptr, i32 } %68, i32 %67, 1
  resume { ptr, i32 } %69
}