; Function Attrs: mustprogress uwtable
define internal fastcc void @_ZN32pxrInternal_v0_24__pxrReserved__L6_UnionERKNS_7VtArrayIiEES3_(ptr dead_on_unwind noalias nonnull writable align 8 %0, ptr noundef nonnull align 8 dereferenceable(40) %1, ptr noundef nonnull align 8 dereferenceable(40) %2) unnamed_addr #0 personality ptr @__gxx_personality_v0 {
  %4 = tail call noundef zeroext i1 @_ZNK32pxrInternal_v0_24__pxrReserved__7VtArrayIiE5emptyEv(ptr noundef nonnull align 8 dereferenceable(40) %1)
  br i1 %4, label %5, label %6

5:                                                ; preds = %3
  tail call void @_ZN32pxrInternal_v0_24__pxrReserved__7VtArrayIiEC1ERKS1_(ptr noundef nonnull align 8 dereferenceable(40) %0, ptr noundef nonnull align 8 dereferenceable(40) %2)
  br label %48

6:                                                ; preds = %3
  %7 = tail call noundef zeroext i1 @_ZNK32pxrInternal_v0_24__pxrReserved__7VtArrayIiE5emptyEv(ptr noundef nonnull align 8 dereferenceable(40) %2)
  tail call void @_ZN32pxrInternal_v0_24__pxrReserved__7VtArrayIiEC1ERKS1_(ptr noundef nonnull align 8 dereferenceable(40) %0, ptr noundef nonnull align 8 dereferenceable(40) %1)
  br i1 %7, label %48, label %8

8:                                                ; preds = %6
  %9 = invoke noundef i64 @_ZNK32pxrInternal_v0_24__pxrReserved__7VtArrayIiE4sizeEv(ptr noundef nonnull align 8 dereferenceable(40) %0)
          to label %10 unwind label %.loopexit.split-lp

10:                                               ; preds = %8
  %11 = invoke noundef i64 @_ZNK32pxrInternal_v0_24__pxrReserved__7VtArrayIiE4sizeEv(ptr noundef nonnull align 8 dereferenceable(40) %2)
          to label %12 unwind label %.loopexit.split-lp

12:                                               ; preds = %10
  %13 = add i64 %11, %9
  invoke void @_ZN32pxrInternal_v0_24__pxrReserved__7VtArrayIiE7reserveEm(ptr noundef nonnull align 8 dereferenceable(40) %0, i64 noundef %13)
          to label %14 unwind label %.loopexit.split-lp

14:                                               ; preds = %12
  %15 = invoke noundef ptr @_ZNK32pxrInternal_v0_24__pxrReserved__7VtArrayIiE6cbeginEv(ptr noundef nonnull align 8 dereferenceable(40) %2)
          to label %16 unwind label %.loopexit.split-lp

16:                                               ; preds = %14
  %17 = invoke noundef ptr @_ZNK32pxrInternal_v0_24__pxrReserved__7VtArrayIiE4cendEv(ptr noundef nonnull align 8 dereferenceable(40) %2)
          to label %18 unwind label %.loopexit.split-lp

18:                                               ; preds = %16
  %.not4.i = icmp eq ptr %15, %17
  br i1 %.not4.i, label %"_ZSt8for_eachIPKiZN32pxrInternal_v0_24__pxrReserved__L6_UnionERKNS2_7VtArrayIiEES6_E3$_0ET0_T_S9_S8_.exit", label %.lr.ph.i

.lr.ph.i:                                         ; preds = %18, %.noexc
  %.05.i = phi ptr [ %19, %.noexc ], [ %15, %18 ]
  invoke void @_ZN32pxrInternal_v0_24__pxrReserved__7VtArrayIiE9push_backERKi(ptr noundef nonnull align 8 dereferenceable(40) %0, ptr noundef nonnull align 4 dereferenceable(4) %.05.i)
          to label %.noexc unwind label %.loopexit

.noexc:                                           ; preds = %.lr.ph.i
  %19 = getelementptr inbounds nuw i8, ptr %.05.i, i64 4
  %.not.i = icmp eq ptr %19, %17
  br i1 %.not.i, label %"_ZSt8for_eachIPKiZN32pxrInternal_v0_24__pxrReserved__L6_UnionERKNS2_7VtArrayIiEES6_E3$_0ET0_T_S9_S8_.exit", label %.lr.ph.i, !llvm.loop !276

"_ZSt8for_eachIPKiZN32pxrInternal_v0_24__pxrReserved__L6_UnionERKNS2_7VtArrayIiEES6_E3$_0ET0_T_S9_S8_.exit": ; preds = %.noexc, %18
  %20 = invoke noundef ptr @_ZN32pxrInternal_v0_24__pxrReserved__7VtArrayIiE5beginEv(ptr noundef nonnull align 8 dereferenceable(40) %0)
          to label %21 unwind label %.loopexit.split-lp

21:                                               ; preds = %"_ZSt8for_eachIPKiZN32pxrInternal_v0_24__pxrReserved__L6_UnionERKNS2_7VtArrayIiEES6_E3$_0ET0_T_S9_S8_.exit"
  %22 = invoke noundef ptr @_ZN32pxrInternal_v0_24__pxrReserved__7VtArrayIiE3endEv(ptr noundef nonnull align 8 dereferenceable(40) %0)
          to label %23 unwind label %.loopexit.split-lp

23:                                               ; preds = %21
  invoke void @_ZSt6__sortIPiN9__gnu_cxx5__ops15_Iter_less_iterEEvT_S4_T0_(ptr noundef %20, ptr noundef %22)
          to label %_ZSt4sortIPiEvT_S1_.exit unwind label %.loopexit.split-lp

_ZSt4sortIPiEvT_S1_.exit:                         ; preds = %23
  %24 = invoke noundef ptr @_ZN32pxrInternal_v0_24__pxrReserved__7VtArrayIiE5beginEv(ptr noundef nonnull align 8 dereferenceable(40) %0)
          to label %25 unwind label %.loopexit.split-lp

25:                                               ; preds = %_ZSt4sortIPiEvT_S1_.exit
  %26 = invoke noundef ptr @_ZN32pxrInternal_v0_24__pxrReserved__7VtArrayIiE3endEv(ptr noundef nonnull align 8 dereferenceable(40) %0)
          to label %27 unwind label %.loopexit.split-lp

27:                                               ; preds = %25
  %28 = icmp eq ptr %24, %26
  br i1 %28, label %_ZSt6uniqueIPiET_S1_S1_.exit, label %.preheader.i.i.i

.preheader.i.i.i:                                 ; preds = %27, %30
  %.0.i.i.i = phi ptr [ %29, %30 ], [ %24, %27 ]
  %29 = getelementptr inbounds nuw i8, ptr %.0.i.i.i, i64 4
  %.not.i.i.i = icmp eq ptr %29, %26
  br i1 %.not.i.i.i, label %_ZSt6uniqueIPiET_S1_S1_.exit, label %30

30:                                               ; preds = %.preheader.i.i.i
  %31 = load i32, ptr %.0.i.i.i, align 4
  %32 = load i32, ptr %29, align 4
  %33 = icmp eq i32 %31, %32
  br i1 %33, label %_ZSt15__adjacent_findIPiN9__gnu_cxx5__ops19_Iter_equal_to_iterEET_S4_S4_T0_.exit.i.i, label %.preheader.i.i.i, !llvm.loop !277

_ZSt15__adjacent_findIPiN9__gnu_cxx5__ops19_Iter_equal_to_iterEET_S4_S4_T0_.exit.i.i: ; preds = %30
  %34 = getelementptr inbounds nuw i8, ptr %.0.i.i.i, i64 8
  %.not23.i.i = icmp eq ptr %34, %26
  br i1 %.not23.i.i, label %._crit_edge.i.i, label %.lr.ph.i.i

.lr.ph.i.i:                                       ; preds = %_ZSt15__adjacent_findIPiN9__gnu_cxx5__ops19_Iter_equal_to_iterEET_S4_S4_T0_.exit.i.i, %41
  %35 = phi i32 [ %37, %41 ], [ %31, %_ZSt15__adjacent_findIPiN9__gnu_cxx5__ops19_Iter_equal_to_iterEET_S4_S4_T0_.exit.i.i ]
  %36 = phi ptr [ %42, %41 ], [ %34, %_ZSt15__adjacent_findIPiN9__gnu_cxx5__ops19_Iter_equal_to_iterEET_S4_S4_T0_.exit.i.i ]
  %.024.i.i = phi ptr [ %.1.i.i, %41 ], [ %.0.i.i.i, %_ZSt15__adjacent_findIPiN9__gnu_cxx5__ops19_Iter_equal_to_iterEET_S4_S4_T0_.exit.i.i ]
  %37 = load i32, ptr %36, align 4
  %38 = icmp eq i32 %35, %37
  br i1 %38, label %41, label %39

39:                                               ; preds = %.lr.ph.i.i
  %40 = getelementptr inbounds nuw i8, ptr %.024.i.i, i64 4
  store i32 %37, ptr %40, align 4
  br label %41

41:                                               ; preds = %39, %.lr.ph.i.i
  %.1.i.i = phi ptr [ %.024.i.i, %.lr.ph.i.i ], [ %40, %39 ]
  %42 = getelementptr inbounds nuw i8, ptr %36, i64 4
  %.not.i.i = icmp eq ptr %42, %26
  br i1 %.not.i.i, label %._crit_edge.i.i, label %.lr.ph.i.i, !llvm.loop !278

._crit_edge.i.i:                                  ; preds = %41, %_ZSt15__adjacent_findIPiN9__gnu_cxx5__ops19_Iter_equal_to_iterEET_S4_S4_T0_.exit.i.i
  %.0.lcssa.i.i = phi ptr [ %.0.i.i.i, %_ZSt15__adjacent_findIPiN9__gnu_cxx5__ops19_Iter_equal_to_iterEET_S4_S4_T0_.exit.i.i ], [ %.1.i.i, %41 ]
  %43 = getelementptr inbounds nuw i8, ptr %.0.lcssa.i.i, i64 4
  br label %_ZSt6uniqueIPiET_S1_S1_.exit

_ZSt6uniqueIPiET_S1_S1_.exit:                     ; preds = %.preheader.i.i.i, %._crit_edge.i.i, %27
  %.015.i.i = phi ptr [ %43, %._crit_edge.i.i ], [ %26, %27 ], [ %26, %.preheader.i.i.i ]
  %44 = invoke noundef ptr @_ZN32pxrInternal_v0_24__pxrReserved__7VtArrayIiE3endEv(ptr noundef nonnull align 8 dereferenceable(40) %0)
          to label %45 unwind label %.loopexit.split-lp

45:                                               ; preds = %_ZSt6uniqueIPiET_S1_S1_.exit
  %46 = invoke noundef ptr @_ZN32pxrInternal_v0_24__pxrReserved__7VtArrayIiE5eraseEPKiS3_(ptr noundef nonnull align 8 dereferenceable(40) %0, ptr noundef %.015.i.i, ptr noundef %44)
          to label %48 unwind label %.loopexit.split-lp

.loopexit:                                        ; preds = %.lr.ph.i
  %lpad.loopexit = landingpad { ptr, i32 }
          cleanup
  br label %47

.loopexit.split-lp:                               ; preds = %8, %10, %12, %14, %16, %"_ZSt8for_eachIPKiZN32pxrInternal_v0_24__pxrReserved__L6_UnionERKNS2_7VtArrayIiEES6_E3$_0ET0_T_S9_S8_.exit", %21, %_ZSt4sortIPiEvT_S1_.exit, %25, %_ZSt6uniqueIPiET_S1_S1_.exit, %45, %23
  %lpad.loopexit.split-lp = landingpad { ptr, i32 }
          cleanup
  br label %47

47:                                               ; preds = %.loopexit.split-lp, %.loopexit
  %lpad.phi = phi { ptr, i32 } [ %lpad.loopexit, %.loopexit ], [ %lpad.loopexit.split-lp, %.loopexit.split-lp ]
  tail call void @_ZN32pxrInternal_v0_24__pxrReserved__7VtArrayIiED1Ev(ptr noundef nonnull align 8 dereferenceable(40) %0) #28
  resume { ptr, i32 } %lpad.phi

48:                                               ; preds = %6, %45, %5
  ret void
}